(dp0
S'seed_group'
p1
(igroup
AgentGroup
p2
(dp3
S'agent_array'
p4
(lp5
Na(iagent
AgentClass
p6
(dp7
S'index'
p8
I1
sS'parent'
p9
F15.0
sS'age'
p10
F1.0
sS'sex'
p11
Vm
p12
sS'is_alpha'
p13
S''
p14
sS'sisters'
p15
(lp16
sS'aggressive'
p17
(lp18
sS'friends'
p19
(lp20
sS'children'
p21
c__builtin__
set
p22
((lp23
tp24
Rp25
sba(iagent
AgentClass
p26
(dp27
g8
I2
sg9
F16.0
sg10
F1.0
sg11
g12
sg13
g14
sg15
(lp28
sg17
(lp29
sg19
(lp30
sg21
g22
((lp31
tp32
Rp33
sba(iagent
AgentClass
p34
(dp35
g8
I3
sg9
F12.0
sg10
F1.0
sg11
Vf
p36
sg13
g14
sg15
(lp37
sg17
(lp38
sg19
(lp39
sg21
g22
((lp40
tp41
Rp42
sba(iagent
AgentClass
p43
(dp44
g8
I4
sg9
F14.0
sg10
F2.0
sg11
g36
sg13
g14
sg15
(lp45
sg17
(lp46
sg19
(lp47
sg21
g22
((lp48
tp49
Rp50
sba(iagent
AgentClass
p51
(dp52
g8
I5
sg9
F16.0
sg10
F3.0
sg11
g36
sg13
g14
sg15
(lp53
sg17
(lp54
sg19
(lp55
sg21
g22
((lp56
tp57
Rp58
sba(iagent
AgentClass
p59
(dp60
g8
I6
sg9
F18.0
sg10
F4.0
sg11
g36
sg13
g14
sg15
(lp61
sg17
(lp62
sg19
(lp63
sg21
g22
((lp64
tp65
Rp66
sba(iagent
AgentClass
p67
(dp68
g8
I7
sg9
F17.0
sg10
F2.0
sg11
g12
sg13
g14
sg15
(lp69
sg17
(lp70
sg19
(lp71
sg21
g22
((lp72
tp73
Rp74
sba(iagent
AgentClass
p75
(dp76
g8
I8
sg9
F15.0
sg10
F2.0
sg11
g12
sg13
g14
sg15
(lp77
sg17
(lp78
sg19
(lp79
sg21
g22
((lp80
tp81
Rp82
sba(iagent
AgentClass
p83
(dp84
g8
I9
sg9
F13.0
sg10
F2.0
sg11
g12
sg13
g14
sg15
(lp85
sg17
(lp86
sg19
(lp87
sg21
g22
((lp88
tp89
Rp90
sba(iagent
AgentClass
p91
(dp92
g8
I10
sg9
F17.0
sg10
F3.0
sg11
g12
sg13
g14
sg15
(lp93
sg17
(lp94
sg19
(lp95
sg21
g22
((lp96
tp97
Rp98
sba(iagent
AgentClass
p99
(dp100
g8
I11
sg9
g14
sg10
F6.0
sg11
g12
sg13
g14
sg15
(lp101
sg17
(lp102
I19
asg19
(lp103
sg21
g22
((lp104
tp105
Rp106
sba(iagent
AgentClass
p107
(dp108
g8
I12
sg9
g14
sg10
F5.0
sg11
g36
sg13
VA
p109
sg15
(lp110
I14
aI18
asg17
(lp111
sg19
(lp112
I20
asg21
g22
((lp113
I3
atp114
Rp115
sba(iagent
AgentClass
p116
(dp117
g8
I13
sg9
g14
sg10
F8.0
sg11
g36
sg13
g14
sg15
(lp118
I17
asg17
(lp119
sg19
(lp120
sg21
g22
((lp121
I9
atp122
Rp123
sba(iagent
AgentClass
p124
(dp125
g8
I14
sg9
g14
sg10
F9.0
sg11
g36
sg13
g14
sg15
(lp126
I12
aI18
asg17
(lp127
sg19
(lp128
I21
asg21
g22
((lp129
I4
atp130
Rp131
sba(iagent
AgentClass
p132
(dp133
g8
I15
sg9
g14
sg10
F16.0
sg11
g36
sg13
g14
sg15
(lp134
I16
asg17
(lp135
sg19
(lp136
I17
asg21
g22
((lp137
I8
aI1
atp138
Rp139
sba(iagent
AgentClass
p140
(dp141
g8
I16
sg9
g14
sg10
F19.0
sg11
g36
sg13
g14
sg15
(lp142
I15
asg17
(lp143
sg19
(lp144
I17
aI18
asg21
g22
((lp145
I2
aI5
atp146
Rp147
sba(iagent
AgentClass
p148
(dp149
g8
I17
sg9
g14
sg10
F20.0
sg11
g36
sg13
g14
sg15
(lp150
I13
asg17
(lp151
sg19
(lp152
I15
aI16
asg21
g22
((lp153
I10
aI7
atp154
Rp155
sba(iagent
AgentClass
p156
(dp157
g8
I18
sg9
g14
sg10
F25.0
sg11
g36
sg13
g14
sg15
(lp158
I12
aI14
asg17
(lp159
sg19
(lp160
I16
asg21
g22
((lp161
I6
atp162
Rp163
sba(iagent
AgentClass
p164
(dp165
g8
I19
sg9
g14
sg10
F7.0
sg11
g12
sg13
g14
sg15
(lp166
sg17
(lp167
I11
aI20
asg19
(lp168
sg21
g22
((lp169
tp170
Rp171
sba(iagent
AgentClass
p172
(dp173
g8
I20
sg9
g14
sg10
F18.0
sg11
g12
sg13
g14
sg15
(lp174
sg17
(lp175
I19
aI21
asg19
(lp176
I12
asg21
g22
((lp177
tp178
Rp179
sba(iagent
AgentClass
p180
(dp181
g8
I21
sg9
g14
sg10
F19.0
sg11
g12
sg13
g109
sg15
(lp182
sg17
(lp183
I20
asg19
(lp184
I14
asg21
g22
((lp185
tp186
Rp187
sbasS'FEMALE_MINIMUM_AGE'
p188
I5
sS'MALE_MINIMUM_AGE'
p189
I7
sbsS'table_data'
p190
(iloader
Loader
p191
(dp192
S'life_table'
p193
(ilifetable
LifeTable
p194
(dp195
bsS'dispersal_table'
p196
(idispersaltable
DispersalTable
p197
(dp198
bsbs.